(dp0
S'bins'
p1
(lp2
(dp3
S'cut'
p4
S'tag_sc_et > 35 && abs(tag_sc_eta) < 2.1 && probe_sc_et > 30 && passL1T == 1 && passEtLeg1 == 1 && passClusterShapeLeg1 == 1 && abs(probe_sc_eta) >= 0.000000 && abs(probe_sc_eta) < 1.479000 && event_nPV >= 0.000000 && event_nPV < 3.000000'
p5
sS'name'
p6
S'bin00_probe_sc_eta_0p00To1p48_event_nPV_0p00To3p00'
p7
sS'vars'
p8
(dp9
S'probe_sc_eta'
p10
(dp11
S'max'
p12
F1.479
sS'min'
p13
F0.0
ssS'event_nPV'
p14
(dp15
g12
F3.0
sg13
F0.0
sssS'title'
p16
S'; 0.000 < probe_sc_eta < 1.479; 0.000 < event_nPV < 3.000'
p17
sa(dp18
g4
S'tag_sc_et > 35 && abs(tag_sc_eta) < 2.1 && probe_sc_et > 30 && passL1T == 1 && passEtLeg1 == 1 && passClusterShapeLeg1 == 1 && abs(probe_sc_eta) >= 1.479000 && abs(probe_sc_eta) < 2.500000 && event_nPV >= 0.000000 && event_nPV < 3.000000'
p19
sg6
S'bin01_probe_sc_eta_1p48To2p50_event_nPV_0p00To3p00'
p20
sg8
(dp21
g10
(dp22
g12
F2.5
sg13
F1.479
ssg14
(dp23
g12
F3.0
sg13
F0.0
sssg16
S'; 1.479 < probe_sc_eta < 2.500; 0.000 < event_nPV < 3.000'
p24
sa(dp25
g4
S'tag_sc_et > 35 && abs(tag_sc_eta) < 2.1 && probe_sc_et > 30 && passL1T == 1 && passEtLeg1 == 1 && passClusterShapeLeg1 == 1 && abs(probe_sc_eta) >= 0.000000 && abs(probe_sc_eta) < 1.479000 && event_nPV >= 3.000000 && event_nPV < 6.000000'
p26
sg6
S'bin02_probe_sc_eta_0p00To1p48_event_nPV_3p00To6p00'
p27
sg8
(dp28
g10
(dp29
g12
F1.479
sg13
F0.0
ssg14
(dp30
g12
F6.0
sg13
F3.0
sssg16
S'; 0.000 < probe_sc_eta < 1.479; 3.000 < event_nPV < 6.000'
p31
sa(dp32
g4
S'tag_sc_et > 35 && abs(tag_sc_eta) < 2.1 && probe_sc_et > 30 && passL1T == 1 && passEtLeg1 == 1 && passClusterShapeLeg1 == 1 && abs(probe_sc_eta) >= 1.479000 && abs(probe_sc_eta) < 2.500000 && event_nPV >= 3.000000 && event_nPV < 6.000000'
p33
sg6
S'bin03_probe_sc_eta_1p48To2p50_event_nPV_3p00To6p00'
p34
sg8
(dp35
g10
(dp36
g12
F2.5
sg13
F1.479
ssg14
(dp37
g12
F6.0
sg13
F3.0
sssg16
S'; 1.479 < probe_sc_eta < 2.500; 3.000 < event_nPV < 6.000'
p38
sa(dp39
g4
S'tag_sc_et > 35 && abs(tag_sc_eta) < 2.1 && probe_sc_et > 30 && passL1T == 1 && passEtLeg1 == 1 && passClusterShapeLeg1 == 1 && abs(probe_sc_eta) >= 0.000000 && abs(probe_sc_eta) < 1.479000 && event_nPV >= 6.000000 && event_nPV < 9.000000'
p40
sg6
S'bin04_probe_sc_eta_0p00To1p48_event_nPV_6p00To9p00'
p41
sg8
(dp42
g10
(dp43
g12
F1.479
sg13
F0.0
ssg14
(dp44
g12
F9.0
sg13
F6.0
sssg16
S'; 0.000 < probe_sc_eta < 1.479; 6.000 < event_nPV < 9.000'
p45
sa(dp46
g4
S'tag_sc_et > 35 && abs(tag_sc_eta) < 2.1 && probe_sc_et > 30 && passL1T == 1 && passEtLeg1 == 1 && passClusterShapeLeg1 == 1 && abs(probe_sc_eta) >= 1.479000 && abs(probe_sc_eta) < 2.500000 && event_nPV >= 6.000000 && event_nPV < 9.000000'
p47
sg6
S'bin05_probe_sc_eta_1p48To2p50_event_nPV_6p00To9p00'
p48
sg8
(dp49
g10
(dp50
g12
F2.5
sg13
F1.479
ssg14
(dp51
g12
F9.0
sg13
F6.0
sssg16
S'; 1.479 < probe_sc_eta < 2.500; 6.000 < event_nPV < 9.000'
p52
sa(dp53
g4
S'tag_sc_et > 35 && abs(tag_sc_eta) < 2.1 && probe_sc_et > 30 && passL1T == 1 && passEtLeg1 == 1 && passClusterShapeLeg1 == 1 && abs(probe_sc_eta) >= 0.000000 && abs(probe_sc_eta) < 1.479000 && event_nPV >= 9.000000 && event_nPV < 12.000000'
p54
sg6
S'bin06_probe_sc_eta_0p00To1p48_event_nPV_9p00To12p00'
p55
sg8
(dp56
g10
(dp57
g12
F1.479
sg13
F0.0
ssg14
(dp58
g12
F12.0
sg13
F9.0
sssg16
S'; 0.000 < probe_sc_eta < 1.479; 9.000 < event_nPV < 12.000'
p59
sa(dp60
g4
S'tag_sc_et > 35 && abs(tag_sc_eta) < 2.1 && probe_sc_et > 30 && passL1T == 1 && passEtLeg1 == 1 && passClusterShapeLeg1 == 1 && abs(probe_sc_eta) >= 1.479000 && abs(probe_sc_eta) < 2.500000 && event_nPV >= 9.000000 && event_nPV < 12.000000'
p61
sg6
S'bin07_probe_sc_eta_1p48To2p50_event_nPV_9p00To12p00'
p62
sg8
(dp63
g10
(dp64
g12
F2.5
sg13
F1.479
ssg14
(dp65
g12
F12.0
sg13
F9.0
sssg16
S'; 1.479 < probe_sc_eta < 2.500; 9.000 < event_nPV < 12.000'
p66
sa(dp67
g4
S'tag_sc_et > 35 && abs(tag_sc_eta) < 2.1 && probe_sc_et > 30 && passL1T == 1 && passEtLeg1 == 1 && passClusterShapeLeg1 == 1 && abs(probe_sc_eta) >= 0.000000 && abs(probe_sc_eta) < 1.479000 && event_nPV >= 12.000000 && event_nPV < 15.000000'
p68
sg6
S'bin08_probe_sc_eta_0p00To1p48_event_nPV_12p00To15p00'
p69
sg8
(dp70
g10
(dp71
g12
F1.479
sg13
F0.0
ssg14
(dp72
g12
F15.0
sg13
F12.0
sssg16
S'; 0.000 < probe_sc_eta < 1.479; 12.000 < event_nPV < 15.000'
p73
sa(dp74
g4
S'tag_sc_et > 35 && abs(tag_sc_eta) < 2.1 && probe_sc_et > 30 && passL1T == 1 && passEtLeg1 == 1 && passClusterShapeLeg1 == 1 && abs(probe_sc_eta) >= 1.479000 && abs(probe_sc_eta) < 2.500000 && event_nPV >= 12.000000 && event_nPV < 15.000000'
p75
sg6
S'bin09_probe_sc_eta_1p48To2p50_event_nPV_12p00To15p00'
p76
sg8
(dp77
g10
(dp78
g12
F2.5
sg13
F1.479
ssg14
(dp79
g12
F15.0
sg13
F12.0
sssg16
S'; 1.479 < probe_sc_eta < 2.500; 12.000 < event_nPV < 15.000'
p80
sa(dp81
g4
S'tag_sc_et > 35 && abs(tag_sc_eta) < 2.1 && probe_sc_et > 30 && passL1T == 1 && passEtLeg1 == 1 && passClusterShapeLeg1 == 1 && abs(probe_sc_eta) >= 0.000000 && abs(probe_sc_eta) < 1.479000 && event_nPV >= 15.000000 && event_nPV < 18.000000'
p82
sg6
S'bin10_probe_sc_eta_0p00To1p48_event_nPV_15p00To18p00'
p83
sg8
(dp84
g10
(dp85
g12
F1.479
sg13
F0.0
ssg14
(dp86
g12
F18.0
sg13
F15.0
sssg16
S'; 0.000 < probe_sc_eta < 1.479; 15.000 < event_nPV < 18.000'
p87
sa(dp88
g4
S'tag_sc_et > 35 && abs(tag_sc_eta) < 2.1 && probe_sc_et > 30 && passL1T == 1 && passEtLeg1 == 1 && passClusterShapeLeg1 == 1 && abs(probe_sc_eta) >= 1.479000 && abs(probe_sc_eta) < 2.500000 && event_nPV >= 15.000000 && event_nPV < 18.000000'
p89
sg6
S'bin11_probe_sc_eta_1p48To2p50_event_nPV_15p00To18p00'
p90
sg8
(dp91
g10
(dp92
g12
F2.5
sg13
F1.479
ssg14
(dp93
g12
F18.0
sg13
F15.0
sssg16
S'; 1.479 < probe_sc_eta < 2.500; 15.000 < event_nPV < 18.000'
p94
sa(dp95
g4
S'tag_sc_et > 35 && abs(tag_sc_eta) < 2.1 && probe_sc_et > 30 && passL1T == 1 && passEtLeg1 == 1 && passClusterShapeLeg1 == 1 && abs(probe_sc_eta) >= 0.000000 && abs(probe_sc_eta) < 1.479000 && event_nPV >= 18.000000 && event_nPV < 21.000000'
p96
sg6
S'bin12_probe_sc_eta_0p00To1p48_event_nPV_18p00To21p00'
p97
sg8
(dp98
g10
(dp99
g12
F1.479
sg13
F0.0
ssg14
(dp100
g12
F21.0
sg13
F18.0
sssg16
S'; 0.000 < probe_sc_eta < 1.479; 18.000 < event_nPV < 21.000'
p101
sa(dp102
g4
S'tag_sc_et > 35 && abs(tag_sc_eta) < 2.1 && probe_sc_et > 30 && passL1T == 1 && passEtLeg1 == 1 && passClusterShapeLeg1 == 1 && abs(probe_sc_eta) >= 1.479000 && abs(probe_sc_eta) < 2.500000 && event_nPV >= 18.000000 && event_nPV < 21.000000'
p103
sg6
S'bin13_probe_sc_eta_1p48To2p50_event_nPV_18p00To21p00'
p104
sg8
(dp105
g10
(dp106
g12
F2.5
sg13
F1.479
ssg14
(dp107
g12
F21.0
sg13
F18.0
sssg16
S'; 1.479 < probe_sc_eta < 2.500; 18.000 < event_nPV < 21.000'
p108
sa(dp109
g4
S'tag_sc_et > 35 && abs(tag_sc_eta) < 2.1 && probe_sc_et > 30 && passL1T == 1 && passEtLeg1 == 1 && passClusterShapeLeg1 == 1 && abs(probe_sc_eta) >= 0.000000 && abs(probe_sc_eta) < 1.479000 && event_nPV >= 21.000000 && event_nPV < 24.000000'
p110
sg6
S'bin14_probe_sc_eta_0p00To1p48_event_nPV_21p00To24p00'
p111
sg8
(dp112
g10
(dp113
g12
F1.479
sg13
F0.0
ssg14
(dp114
g12
F24.0
sg13
F21.0
sssg16
S'; 0.000 < probe_sc_eta < 1.479; 21.000 < event_nPV < 24.000'
p115
sa(dp116
g4
S'tag_sc_et > 35 && abs(tag_sc_eta) < 2.1 && probe_sc_et > 30 && passL1T == 1 && passEtLeg1 == 1 && passClusterShapeLeg1 == 1 && abs(probe_sc_eta) >= 1.479000 && abs(probe_sc_eta) < 2.500000 && event_nPV >= 21.000000 && event_nPV < 24.000000'
p117
sg6
S'bin15_probe_sc_eta_1p48To2p50_event_nPV_21p00To24p00'
p118
sg8
(dp119
g10
(dp120
g12
F2.5
sg13
F1.479
ssg14
(dp121
g12
F24.0
sg13
F21.0
sssg16
S'; 1.479 < probe_sc_eta < 2.500; 21.000 < event_nPV < 24.000'
p122
sa(dp123
g4
S'tag_sc_et > 35 && abs(tag_sc_eta) < 2.1 && probe_sc_et > 30 && passL1T == 1 && passEtLeg1 == 1 && passClusterShapeLeg1 == 1 && abs(probe_sc_eta) >= 0.000000 && abs(probe_sc_eta) < 1.479000 && event_nPV >= 24.000000 && event_nPV < 27.000000'
p124
sg6
S'bin16_probe_sc_eta_0p00To1p48_event_nPV_24p00To27p00'
p125
sg8
(dp126
g10
(dp127
g12
F1.479
sg13
F0.0
ssg14
(dp128
g12
F27.0
sg13
F24.0
sssg16
S'; 0.000 < probe_sc_eta < 1.479; 24.000 < event_nPV < 27.000'
p129
sa(dp130
g4
S'tag_sc_et > 35 && abs(tag_sc_eta) < 2.1 && probe_sc_et > 30 && passL1T == 1 && passEtLeg1 == 1 && passClusterShapeLeg1 == 1 && abs(probe_sc_eta) >= 1.479000 && abs(probe_sc_eta) < 2.500000 && event_nPV >= 24.000000 && event_nPV < 27.000000'
p131
sg6
S'bin17_probe_sc_eta_1p48To2p50_event_nPV_24p00To27p00'
p132
sg8
(dp133
g10
(dp134
g12
F2.5
sg13
F1.479
ssg14
(dp135
g12
F27.0
sg13
F24.0
sssg16
S'; 1.479 < probe_sc_eta < 2.500; 24.000 < event_nPV < 27.000'
p136
sa(dp137
g4
S'tag_sc_et > 35 && abs(tag_sc_eta) < 2.1 && probe_sc_et > 30 && passL1T == 1 && passEtLeg1 == 1 && passClusterShapeLeg1 == 1 && abs(probe_sc_eta) >= 0.000000 && abs(probe_sc_eta) < 1.479000 && event_nPV >= 27.000000 && event_nPV < 30.000000'
p138
sg6
S'bin18_probe_sc_eta_0p00To1p48_event_nPV_27p00To30p00'
p139
sg8
(dp140
g10
(dp141
g12
F1.479
sg13
F0.0
ssg14
(dp142
g12
F30.0
sg13
F27.0
sssg16
S'; 0.000 < probe_sc_eta < 1.479; 27.000 < event_nPV < 30.000'
p143
sa(dp144
g4
S'tag_sc_et > 35 && abs(tag_sc_eta) < 2.1 && probe_sc_et > 30 && passL1T == 1 && passEtLeg1 == 1 && passClusterShapeLeg1 == 1 && abs(probe_sc_eta) >= 1.479000 && abs(probe_sc_eta) < 2.500000 && event_nPV >= 27.000000 && event_nPV < 30.000000'
p145
sg6
S'bin19_probe_sc_eta_1p48To2p50_event_nPV_27p00To30p00'
p146
sg8
(dp147
g10
(dp148
g12
F2.5
sg13
F1.479
ssg14
(dp149
g12
F30.0
sg13
F27.0
sssg16
S'; 1.479 < probe_sc_eta < 2.500; 27.000 < event_nPV < 30.000'
p150
sa(dp151
g4
S'tag_sc_et > 35 && abs(tag_sc_eta) < 2.1 && probe_sc_et > 30 && passL1T == 1 && passEtLeg1 == 1 && passClusterShapeLeg1 == 1 && abs(probe_sc_eta) >= 0.000000 && abs(probe_sc_eta) < 1.479000 && event_nPV >= 30.000000 && event_nPV < 33.000000'
p152
sg6
S'bin20_probe_sc_eta_0p00To1p48_event_nPV_30p00To33p00'
p153
sg8
(dp154
g10
(dp155
g12
F1.479
sg13
F0.0
ssg14
(dp156
g12
F33.0
sg13
F30.0
sssg16
S'; 0.000 < probe_sc_eta < 1.479; 30.000 < event_nPV < 33.000'
p157
sa(dp158
g4
S'tag_sc_et > 35 && abs(tag_sc_eta) < 2.1 && probe_sc_et > 30 && passL1T == 1 && passEtLeg1 == 1 && passClusterShapeLeg1 == 1 && abs(probe_sc_eta) >= 1.479000 && abs(probe_sc_eta) < 2.500000 && event_nPV >= 30.000000 && event_nPV < 33.000000'
p159
sg6
S'bin21_probe_sc_eta_1p48To2p50_event_nPV_30p00To33p00'
p160
sg8
(dp161
g10
(dp162
g12
F2.5
sg13
F1.479
ssg14
(dp163
g12
F33.0
sg13
F30.0
sssg16
S'; 1.479 < probe_sc_eta < 2.500; 30.000 < event_nPV < 33.000'
p164
sa(dp165
g4
S'tag_sc_et > 35 && abs(tag_sc_eta) < 2.1 && probe_sc_et > 30 && passL1T == 1 && passEtLeg1 == 1 && passClusterShapeLeg1 == 1 && abs(probe_sc_eta) >= 0.000000 && abs(probe_sc_eta) < 1.479000 && event_nPV >= 33.000000 && event_nPV < 36.000000'
p166
sg6
S'bin22_probe_sc_eta_0p00To1p48_event_nPV_33p00To36p00'
p167
sg8
(dp168
g10
(dp169
g12
F1.479
sg13
F0.0
ssg14
(dp170
g12
F36.0
sg13
F33.0
sssg16
S'; 0.000 < probe_sc_eta < 1.479; 33.000 < event_nPV < 36.000'
p171
sa(dp172
g4
S'tag_sc_et > 35 && abs(tag_sc_eta) < 2.1 && probe_sc_et > 30 && passL1T == 1 && passEtLeg1 == 1 && passClusterShapeLeg1 == 1 && abs(probe_sc_eta) >= 1.479000 && abs(probe_sc_eta) < 2.500000 && event_nPV >= 33.000000 && event_nPV < 36.000000'
p173
sg6
S'bin23_probe_sc_eta_1p48To2p50_event_nPV_33p00To36p00'
p174
sg8
(dp175
g10
(dp176
g12
F2.5
sg13
F1.479
ssg14
(dp177
g12
F36.0
sg13
F33.0
sssg16
S'; 1.479 < probe_sc_eta < 2.500; 33.000 < event_nPV < 36.000'
p178
sa(dp179
g4
S'tag_sc_et > 35 && abs(tag_sc_eta) < 2.1 && probe_sc_et > 30 && passL1T == 1 && passEtLeg1 == 1 && passClusterShapeLeg1 == 1 && abs(probe_sc_eta) >= 0.000000 && abs(probe_sc_eta) < 1.479000 && event_nPV >= 36.000000 && event_nPV < 39.000000'
p180
sg6
S'bin24_probe_sc_eta_0p00To1p48_event_nPV_36p00To39p00'
p181
sg8
(dp182
g10
(dp183
g12
F1.479
sg13
F0.0
ssg14
(dp184
g12
F39.0
sg13
F36.0
sssg16
S'; 0.000 < probe_sc_eta < 1.479; 36.000 < event_nPV < 39.000'
p185
sa(dp186
g4
S'tag_sc_et > 35 && abs(tag_sc_eta) < 2.1 && probe_sc_et > 30 && passL1T == 1 && passEtLeg1 == 1 && passClusterShapeLeg1 == 1 && abs(probe_sc_eta) >= 1.479000 && abs(probe_sc_eta) < 2.500000 && event_nPV >= 36.000000 && event_nPV < 39.000000'
p187
sg6
S'bin25_probe_sc_eta_1p48To2p50_event_nPV_36p00To39p00'
p188
sg8
(dp189
g10
(dp190
g12
F2.5
sg13
F1.479
ssg14
(dp191
g12
F39.0
sg13
F36.0
sssg16
S'; 1.479 < probe_sc_eta < 2.500; 36.000 < event_nPV < 39.000'
p192
sa(dp193
g4
S'tag_sc_et > 35 && abs(tag_sc_eta) < 2.1 && probe_sc_et > 30 && passL1T == 1 && passEtLeg1 == 1 && passClusterShapeLeg1 == 1 && abs(probe_sc_eta) >= 0.000000 && abs(probe_sc_eta) < 1.479000 && event_nPV >= 39.000000 && event_nPV < 42.000000'
p194
sg6
S'bin26_probe_sc_eta_0p00To1p48_event_nPV_39p00To42p00'
p195
sg8
(dp196
g10
(dp197
g12
F1.479
sg13
F0.0
ssg14
(dp198
g12
F42.0
sg13
F39.0
sssg16
S'; 0.000 < probe_sc_eta < 1.479; 39.000 < event_nPV < 42.000'
p199
sa(dp200
g4
S'tag_sc_et > 35 && abs(tag_sc_eta) < 2.1 && probe_sc_et > 30 && passL1T == 1 && passEtLeg1 == 1 && passClusterShapeLeg1 == 1 && abs(probe_sc_eta) >= 1.479000 && abs(probe_sc_eta) < 2.500000 && event_nPV >= 39.000000 && event_nPV < 42.000000'
p201
sg6
S'bin27_probe_sc_eta_1p48To2p50_event_nPV_39p00To42p00'
p202
sg8
(dp203
g10
(dp204
g12
F2.5
sg13
F1.479
ssg14
(dp205
g12
F42.0
sg13
F39.0
sssg16
S'; 1.479 < probe_sc_eta < 2.500; 39.000 < event_nPV < 42.000'
p206
sa(dp207
g4
S'tag_sc_et > 35 && abs(tag_sc_eta) < 2.1 && probe_sc_et > 30 && passL1T == 1 && passEtLeg1 == 1 && passClusterShapeLeg1 == 1 && abs(probe_sc_eta) >= 0.000000 && abs(probe_sc_eta) < 1.479000 && event_nPV >= 42.000000 && event_nPV < 45.000000'
p208
sg6
S'bin28_probe_sc_eta_0p00To1p48_event_nPV_42p00To45p00'
p209
sg8
(dp210
g10
(dp211
g12
F1.479
sg13
F0.0
ssg14
(dp212
g12
F45.0
sg13
F42.0
sssg16
S'; 0.000 < probe_sc_eta < 1.479; 42.000 < event_nPV < 45.000'
p213
sa(dp214
g4
S'tag_sc_et > 35 && abs(tag_sc_eta) < 2.1 && probe_sc_et > 30 && passL1T == 1 && passEtLeg1 == 1 && passClusterShapeLeg1 == 1 && abs(probe_sc_eta) >= 1.479000 && abs(probe_sc_eta) < 2.500000 && event_nPV >= 42.000000 && event_nPV < 45.000000'
p215
sg6
S'bin29_probe_sc_eta_1p48To2p50_event_nPV_42p00To45p00'
p216
sg8
(dp217
g10
(dp218
g12
F2.5
sg13
F1.479
ssg14
(dp219
g12
F45.0
sg13
F42.0
sssg16
S'; 1.479 < probe_sc_eta < 2.500; 42.000 < event_nPV < 45.000'
p220
sa(dp221
g4
S'tag_sc_et > 35 && abs(tag_sc_eta) < 2.1 && probe_sc_et > 30 && passL1T == 1 && passEtLeg1 == 1 && passClusterShapeLeg1 == 1 && abs(probe_sc_eta) >= 0.000000 && abs(probe_sc_eta) < 1.479000 && event_nPV >= 45.000000 && event_nPV < 48.000000'
p222
sg6
S'bin30_probe_sc_eta_0p00To1p48_event_nPV_45p00To48p00'
p223
sg8
(dp224
g10
(dp225
g12
F1.479
sg13
F0.0
ssg14
(dp226
g12
F48.0
sg13
F45.0
sssg16
S'; 0.000 < probe_sc_eta < 1.479; 45.000 < event_nPV < 48.000'
p227
sa(dp228
g4
S'tag_sc_et > 35 && abs(tag_sc_eta) < 2.1 && probe_sc_et > 30 && passL1T == 1 && passEtLeg1 == 1 && passClusterShapeLeg1 == 1 && abs(probe_sc_eta) >= 1.479000 && abs(probe_sc_eta) < 2.500000 && event_nPV >= 45.000000 && event_nPV < 48.000000'
p229
sg6
S'bin31_probe_sc_eta_1p48To2p50_event_nPV_45p00To48p00'
p230
sg8
(dp231
g10
(dp232
g12
F2.5
sg13
F1.479
ssg14
(dp233
g12
F48.0
sg13
F45.0
sssg16
S'; 1.479 < probe_sc_eta < 2.500; 45.000 < event_nPV < 48.000'
p234
sa(dp235
g4
S'tag_sc_et > 35 && abs(tag_sc_eta) < 2.1 && probe_sc_et > 30 && passL1T == 1 && passEtLeg1 == 1 && passClusterShapeLeg1 == 1 && abs(probe_sc_eta) >= 0.000000 && abs(probe_sc_eta) < 1.479000 && event_nPV >= 48.000000 && event_nPV < 51.000000'
p236
sg6
S'bin32_probe_sc_eta_0p00To1p48_event_nPV_48p00To51p00'
p237
sg8
(dp238
g10
(dp239
g12
F1.479
sg13
F0.0
ssg14
(dp240
g12
F51.0
sg13
F48.0
sssg16
S'; 0.000 < probe_sc_eta < 1.479; 48.000 < event_nPV < 51.000'
p241
sa(dp242
g4
S'tag_sc_et > 35 && abs(tag_sc_eta) < 2.1 && probe_sc_et > 30 && passL1T == 1 && passEtLeg1 == 1 && passClusterShapeLeg1 == 1 && abs(probe_sc_eta) >= 1.479000 && abs(probe_sc_eta) < 2.500000 && event_nPV >= 48.000000 && event_nPV < 51.000000'
p243
sg6
S'bin33_probe_sc_eta_1p48To2p50_event_nPV_48p00To51p00'
p244
sg8
(dp245
g10
(dp246
g12
F2.5
sg13
F1.479
ssg14
(dp247
g12
F51.0
sg13
F48.0
sssg16
S'; 1.479 < probe_sc_eta < 2.500; 48.000 < event_nPV < 51.000'
p248
sa(dp249
g4
S'tag_sc_et > 35 && abs(tag_sc_eta) < 2.1 && probe_sc_et > 30 && passL1T == 1 && passEtLeg1 == 1 && passClusterShapeLeg1 == 1 && abs(probe_sc_eta) >= 0.000000 && abs(probe_sc_eta) < 1.479000 && event_nPV >= 51.000000 && event_nPV < 54.000000'
p250
sg6
S'bin34_probe_sc_eta_0p00To1p48_event_nPV_51p00To54p00'
p251
sg8
(dp252
g10
(dp253
g12
F1.479
sg13
F0.0
ssg14
(dp254
g12
F54.0
sg13
F51.0
sssg16
S'; 0.000 < probe_sc_eta < 1.479; 51.000 < event_nPV < 54.000'
p255
sa(dp256
g4
S'tag_sc_et > 35 && abs(tag_sc_eta) < 2.1 && probe_sc_et > 30 && passL1T == 1 && passEtLeg1 == 1 && passClusterShapeLeg1 == 1 && abs(probe_sc_eta) >= 1.479000 && abs(probe_sc_eta) < 2.500000 && event_nPV >= 51.000000 && event_nPV < 54.000000'
p257
sg6
S'bin35_probe_sc_eta_1p48To2p50_event_nPV_51p00To54p00'
p258
sg8
(dp259
g10
(dp260
g12
F2.5
sg13
F1.479
ssg14
(dp261
g12
F54.0
sg13
F51.0
sssg16
S'; 1.479 < probe_sc_eta < 2.500; 51.000 < event_nPV < 54.000'
p262
sa(dp263
g4
S'tag_sc_et > 35 && abs(tag_sc_eta) < 2.1 && probe_sc_et > 30 && passL1T == 1 && passEtLeg1 == 1 && passClusterShapeLeg1 == 1 && abs(probe_sc_eta) >= 0.000000 && abs(probe_sc_eta) < 1.479000 && event_nPV >= 54.000000 && event_nPV < 57.000000'
p264
sg6
S'bin36_probe_sc_eta_0p00To1p48_event_nPV_54p00To57p00'
p265
sg8
(dp266
g10
(dp267
g12
F1.479
sg13
F0.0
ssg14
(dp268
g12
F57.0
sg13
F54.0
sssg16
S'; 0.000 < probe_sc_eta < 1.479; 54.000 < event_nPV < 57.000'
p269
sa(dp270
g4
S'tag_sc_et > 35 && abs(tag_sc_eta) < 2.1 && probe_sc_et > 30 && passL1T == 1 && passEtLeg1 == 1 && passClusterShapeLeg1 == 1 && abs(probe_sc_eta) >= 1.479000 && abs(probe_sc_eta) < 2.500000 && event_nPV >= 54.000000 && event_nPV < 57.000000'
p271
sg6
S'bin37_probe_sc_eta_1p48To2p50_event_nPV_54p00To57p00'
p272
sg8
(dp273
g10
(dp274
g12
F2.5
sg13
F1.479
ssg14
(dp275
g12
F57.0
sg13
F54.0
sssg16
S'; 1.479 < probe_sc_eta < 2.500; 54.000 < event_nPV < 57.000'
p276
sa(dp277
g4
S'tag_sc_et > 35 && abs(tag_sc_eta) < 2.1 && probe_sc_et > 30 && passL1T == 1 && passEtLeg1 == 1 && passClusterShapeLeg1 == 1 && abs(probe_sc_eta) >= 0.000000 && abs(probe_sc_eta) < 1.479000 && event_nPV >= 57.000000 && event_nPV < 60.000000'
p278
sg6
S'bin38_probe_sc_eta_0p00To1p48_event_nPV_57p00To60p00'
p279
sg8
(dp280
g10
(dp281
g12
F1.479
sg13
F0.0
ssg14
(dp282
g12
F60.0
sg13
F57.0
sssg16
S'; 0.000 < probe_sc_eta < 1.479; 57.000 < event_nPV < 60.000'
p283
sa(dp284
g4
S'tag_sc_et > 35 && abs(tag_sc_eta) < 2.1 && probe_sc_et > 30 && passL1T == 1 && passEtLeg1 == 1 && passClusterShapeLeg1 == 1 && abs(probe_sc_eta) >= 1.479000 && abs(probe_sc_eta) < 2.500000 && event_nPV >= 57.000000 && event_nPV < 60.000000'
p285
sg6
S'bin39_probe_sc_eta_1p48To2p50_event_nPV_57p00To60p00'
p286
sg8
(dp287
g10
(dp288
g12
F2.5
sg13
F1.479
ssg14
(dp289
g12
F60.0
sg13
F57.0
sssg16
S'; 1.479 < probe_sc_eta < 2.500; 57.000 < event_nPV < 60.000'
p290
sa(dp291
g4
S'tag_sc_et > 35 && abs(tag_sc_eta) < 2.1 && probe_sc_et > 30 && passL1T == 1 && passEtLeg1 == 1 && passClusterShapeLeg1 == 1 && abs(probe_sc_eta) >= 0.000000 && abs(probe_sc_eta) < 1.479000 && event_nPV >= 60.000000 && event_nPV < 63.000000'
p292
sg6
S'bin40_probe_sc_eta_0p00To1p48_event_nPV_60p00To63p00'
p293
sg8
(dp294
g10
(dp295
g12
F1.479
sg13
F0.0
ssg14
(dp296
g12
F63.0
sg13
F60.0
sssg16
S'; 0.000 < probe_sc_eta < 1.479; 60.000 < event_nPV < 63.000'
p297
sa(dp298
g4
S'tag_sc_et > 35 && abs(tag_sc_eta) < 2.1 && probe_sc_et > 30 && passL1T == 1 && passEtLeg1 == 1 && passClusterShapeLeg1 == 1 && abs(probe_sc_eta) >= 1.479000 && abs(probe_sc_eta) < 2.500000 && event_nPV >= 60.000000 && event_nPV < 63.000000'
p299
sg6
S'bin41_probe_sc_eta_1p48To2p50_event_nPV_60p00To63p00'
p300
sg8
(dp301
g10
(dp302
g12
F2.5
sg13
F1.479
ssg14
(dp303
g12
F63.0
sg13
F60.0
sssg16
S'; 1.479 < probe_sc_eta < 2.500; 60.000 < event_nPV < 63.000'
p304
sa(dp305
g4
S'tag_sc_et > 35 && abs(tag_sc_eta) < 2.1 && probe_sc_et > 30 && passL1T == 1 && passEtLeg1 == 1 && passClusterShapeLeg1 == 1 && abs(probe_sc_eta) >= 0.000000 && abs(probe_sc_eta) < 1.479000 && event_nPV >= 63.000000 && event_nPV < 66.000000'
p306
sg6
S'bin42_probe_sc_eta_0p00To1p48_event_nPV_63p00To66p00'
p307
sg8
(dp308
g10
(dp309
g12
F1.479
sg13
F0.0
ssg14
(dp310
g12
F66.0
sg13
F63.0
sssg16
S'; 0.000 < probe_sc_eta < 1.479; 63.000 < event_nPV < 66.000'
p311
sa(dp312
g4
S'tag_sc_et > 35 && abs(tag_sc_eta) < 2.1 && probe_sc_et > 30 && passL1T == 1 && passEtLeg1 == 1 && passClusterShapeLeg1 == 1 && abs(probe_sc_eta) >= 1.479000 && abs(probe_sc_eta) < 2.500000 && event_nPV >= 63.000000 && event_nPV < 66.000000'
p313
sg6
S'bin43_probe_sc_eta_1p48To2p50_event_nPV_63p00To66p00'
p314
sg8
(dp315
g10
(dp316
g12
F2.5
sg13
F1.479
ssg14
(dp317
g12
F66.0
sg13
F63.0
sssg16
S'; 1.479 < probe_sc_eta < 2.500; 63.000 < event_nPV < 66.000'
p318
sa(dp319
g4
S'tag_sc_et > 35 && abs(tag_sc_eta) < 2.1 && probe_sc_et > 30 && passL1T == 1 && passEtLeg1 == 1 && passClusterShapeLeg1 == 1 && abs(probe_sc_eta) >= 0.000000 && abs(probe_sc_eta) < 1.479000 && event_nPV >= 66.000000 && event_nPV < 69.000000'
p320
sg6
S'bin44_probe_sc_eta_0p00To1p48_event_nPV_66p00To69p00'
p321
sg8
(dp322
g10
(dp323
g12
F1.479
sg13
F0.0
ssg14
(dp324
g12
F69.0
sg13
F66.0
sssg16
S'; 0.000 < probe_sc_eta < 1.479; 66.000 < event_nPV < 69.000'
p325
sa(dp326
g4
S'tag_sc_et > 35 && abs(tag_sc_eta) < 2.1 && probe_sc_et > 30 && passL1T == 1 && passEtLeg1 == 1 && passClusterShapeLeg1 == 1 && abs(probe_sc_eta) >= 1.479000 && abs(probe_sc_eta) < 2.500000 && event_nPV >= 66.000000 && event_nPV < 69.000000'
p327
sg6
S'bin45_probe_sc_eta_1p48To2p50_event_nPV_66p00To69p00'
p328
sg8
(dp329
g10
(dp330
g12
F2.5
sg13
F1.479
ssg14
(dp331
g12
F69.0
sg13
F66.0
sssg16
S'; 1.479 < probe_sc_eta < 2.500; 66.000 < event_nPV < 69.000'
p332
sasg8
(lp333
g10
ag14
as.