(dp0
S'bins'
p1
(lp2
(dp3
S'cut'
p4
S'tag_sc_et > 35 && abs(tag_sc_eta) < 2.1 && probe_sc_et > 30 && passL1T == 1 && probe_sc_eta >= -2.500000 && probe_sc_eta < -2.200000 && probe_sc_et >= 30.000000 && probe_sc_et < 250.000000'
p5
sS'name'
p6
S'bin00_probe_sc_eta_m2p50Tom2p20_probe_sc_et_30p00To250p00'
p7
sS'vars'
p8
(dp9
S'probe_sc_eta'
p10
(dp11
S'max'
p12
F-2.2
sS'min'
p13
F-2.5
ssS'probe_sc_et'
p14
(dp15
g12
I250
sg13
I30
sssS'title'
p16
S'; -2.500 < probe_sc_eta < -2.200; 30.000 < probe_sc_et < 250.000'
p17
sa(dp18
g4
S'tag_sc_et > 35 && abs(tag_sc_eta) < 2.1 && probe_sc_et > 30 && passL1T == 1 && probe_sc_eta >= -2.200000 && probe_sc_eta < -1.566000 && probe_sc_et >= 30.000000 && probe_sc_et < 250.000000'
p19
sg6
S'bin01_probe_sc_eta_m2p20Tom1p57_probe_sc_et_30p00To250p00'
p20
sg8
(dp21
g10
(dp22
g12
F-1.566
sg13
F-2.2
ssg14
(dp23
g12
I250
sg13
I30
sssg16
S'; -2.200 < probe_sc_eta < -1.566; 30.000 < probe_sc_et < 250.000'
p24
sa(dp25
g4
S'tag_sc_et > 35 && abs(tag_sc_eta) < 2.1 && probe_sc_et > 30 && passL1T == 1 && probe_sc_eta >= -1.566000 && probe_sc_eta < -1.444200 && probe_sc_et >= 30.000000 && probe_sc_et < 250.000000'
p26
sg6
S'bin02_probe_sc_eta_m1p57Tom1p44_probe_sc_et_30p00To250p00'
p27
sg8
(dp28
g10
(dp29
g12
F-1.4442
sg13
F-1.566
ssg14
(dp30
g12
I250
sg13
I30
sssg16
S'; -1.566 < probe_sc_eta < -1.444; 30.000 < probe_sc_et < 250.000'
p31
sa(dp32
g4
S'tag_sc_et > 35 && abs(tag_sc_eta) < 2.1 && probe_sc_et > 30 && passL1T == 1 && probe_sc_eta >= -1.444200 && probe_sc_eta < -1.000000 && probe_sc_et >= 30.000000 && probe_sc_et < 250.000000'
p33
sg6
S'bin03_probe_sc_eta_m1p44Tom1p00_probe_sc_et_30p00To250p00'
p34
sg8
(dp35
g10
(dp36
g12
F-1.0
sg13
F-1.4442
ssg14
(dp37
g12
I250
sg13
I30
sssg16
S'; -1.444 < probe_sc_eta < -1.000; 30.000 < probe_sc_et < 250.000'
p38
sa(dp39
g4
S'tag_sc_et > 35 && abs(tag_sc_eta) < 2.1 && probe_sc_et > 30 && passL1T == 1 && probe_sc_eta >= -1.000000 && probe_sc_eta < -0.600000 && probe_sc_et >= 30.000000 && probe_sc_et < 250.000000'
p40
sg6
S'bin04_probe_sc_eta_m1p00Tom0p60_probe_sc_et_30p00To250p00'
p41
sg8
(dp42
g10
(dp43
g12
F-0.6
sg13
F-1.0
ssg14
(dp44
g12
I250
sg13
I30
sssg16
S'; -1.000 < probe_sc_eta < -0.600; 30.000 < probe_sc_et < 250.000'
p45
sa(dp46
g4
S'tag_sc_et > 35 && abs(tag_sc_eta) < 2.1 && probe_sc_et > 30 && passL1T == 1 && probe_sc_eta >= -0.600000 && probe_sc_eta < -0.300000 && probe_sc_et >= 30.000000 && probe_sc_et < 250.000000'
p47
sg6
S'bin05_probe_sc_eta_m0p60Tom0p30_probe_sc_et_30p00To250p00'
p48
sg8
(dp49
g10
(dp50
g12
F-0.3
sg13
F-0.6
ssg14
(dp51
g12
I250
sg13
I30
sssg16
S'; -0.600 < probe_sc_eta < -0.300; 30.000 < probe_sc_et < 250.000'
p52
sa(dp53
g4
S'tag_sc_et > 35 && abs(tag_sc_eta) < 2.1 && probe_sc_et > 30 && passL1T == 1 && probe_sc_eta >= -0.300000 && probe_sc_eta < -0.100000 && probe_sc_et >= 30.000000 && probe_sc_et < 250.000000'
p54
sg6
S'bin06_probe_sc_eta_m0p30Tom0p10_probe_sc_et_30p00To250p00'
p55
sg8
(dp56
g10
(dp57
g12
F-0.1
sg13
F-0.3
ssg14
(dp58
g12
I250
sg13
I30
sssg16
S'; -0.300 < probe_sc_eta < -0.100; 30.000 < probe_sc_et < 250.000'
p59
sa(dp60
g4
S'tag_sc_et > 35 && abs(tag_sc_eta) < 2.1 && probe_sc_et > 30 && passL1T == 1 && probe_sc_eta >= -0.100000 && probe_sc_eta < 0.100000 && probe_sc_et >= 30.000000 && probe_sc_et < 250.000000'
p61
sg6
S'bin07_probe_sc_eta_m0p10To0p10_probe_sc_et_30p00To250p00'
p62
sg8
(dp63
g10
(dp64
g12
F0.1
sg13
F-0.1
ssg14
(dp65
g12
I250
sg13
I30
sssg16
S'; -0.100 < probe_sc_eta < 0.100; 30.000 < probe_sc_et < 250.000'
p66
sa(dp67
g4
S'tag_sc_et > 35 && abs(tag_sc_eta) < 2.1 && probe_sc_et > 30 && passL1T == 1 && probe_sc_eta >= 0.100000 && probe_sc_eta < 0.300000 && probe_sc_et >= 30.000000 && probe_sc_et < 250.000000'
p68
sg6
S'bin08_probe_sc_eta_0p10To0p30_probe_sc_et_30p00To250p00'
p69
sg8
(dp70
g10
(dp71
g12
F0.3
sg13
F0.1
ssg14
(dp72
g12
I250
sg13
I30
sssg16
S'; 0.100 < probe_sc_eta < 0.300; 30.000 < probe_sc_et < 250.000'
p73
sa(dp74
g4
S'tag_sc_et > 35 && abs(tag_sc_eta) < 2.1 && probe_sc_et > 30 && passL1T == 1 && probe_sc_eta >= 0.300000 && probe_sc_eta < 0.600000 && probe_sc_et >= 30.000000 && probe_sc_et < 250.000000'
p75
sg6
S'bin09_probe_sc_eta_0p30To0p60_probe_sc_et_30p00To250p00'
p76
sg8
(dp77
g10
(dp78
g12
F0.6
sg13
F0.3
ssg14
(dp79
g12
I250
sg13
I30
sssg16
S'; 0.300 < probe_sc_eta < 0.600; 30.000 < probe_sc_et < 250.000'
p80
sa(dp81
g4
S'tag_sc_et > 35 && abs(tag_sc_eta) < 2.1 && probe_sc_et > 30 && passL1T == 1 && probe_sc_eta >= 0.600000 && probe_sc_eta < 1.000000 && probe_sc_et >= 30.000000 && probe_sc_et < 250.000000'
p82
sg6
S'bin10_probe_sc_eta_0p60To1p00_probe_sc_et_30p00To250p00'
p83
sg8
(dp84
g10
(dp85
g12
F1.0
sg13
F0.6
ssg14
(dp86
g12
I250
sg13
I30
sssg16
S'; 0.600 < probe_sc_eta < 1.000; 30.000 < probe_sc_et < 250.000'
p87
sa(dp88
g4
S'tag_sc_et > 35 && abs(tag_sc_eta) < 2.1 && probe_sc_et > 30 && passL1T == 1 && probe_sc_eta >= 1.000000 && probe_sc_eta < 1.444200 && probe_sc_et >= 30.000000 && probe_sc_et < 250.000000'
p89
sg6
S'bin11_probe_sc_eta_1p00To1p44_probe_sc_et_30p00To250p00'
p90
sg8
(dp91
g10
(dp92
g12
F1.4442
sg13
F1.0
ssg14
(dp93
g12
I250
sg13
I30
sssg16
S'; 1.000 < probe_sc_eta < 1.444; 30.000 < probe_sc_et < 250.000'
p94
sa(dp95
g4
S'tag_sc_et > 35 && abs(tag_sc_eta) < 2.1 && probe_sc_et > 30 && passL1T == 1 && probe_sc_eta >= 1.444200 && probe_sc_eta < 1.566000 && probe_sc_et >= 30.000000 && probe_sc_et < 250.000000'
p96
sg6
S'bin12_probe_sc_eta_1p44To1p57_probe_sc_et_30p00To250p00'
p97
sg8
(dp98
g10
(dp99
g12
F1.566
sg13
F1.4442
ssg14
(dp100
g12
I250
sg13
I30
sssg16
S'; 1.444 < probe_sc_eta < 1.566; 30.000 < probe_sc_et < 250.000'
p101
sa(dp102
g4
S'tag_sc_et > 35 && abs(tag_sc_eta) < 2.1 && probe_sc_et > 30 && passL1T == 1 && probe_sc_eta >= 1.566000 && probe_sc_eta < 2.200000 && probe_sc_et >= 30.000000 && probe_sc_et < 250.000000'
p103
sg6
S'bin13_probe_sc_eta_1p57To2p20_probe_sc_et_30p00To250p00'
p104
sg8
(dp105
g10
(dp106
g12
F2.2
sg13
F1.566
ssg14
(dp107
g12
I250
sg13
I30
sssg16
S'; 1.566 < probe_sc_eta < 2.200; 30.000 < probe_sc_et < 250.000'
p108
sa(dp109
g4
S'tag_sc_et > 35 && abs(tag_sc_eta) < 2.1 && probe_sc_et > 30 && passL1T == 1 && probe_sc_eta >= 2.200000 && probe_sc_eta < 2.500000 && probe_sc_et >= 30.000000 && probe_sc_et < 250.000000'
p110
sg6
S'bin14_probe_sc_eta_2p20To2p50_probe_sc_et_30p00To250p00'
p111
sg8
(dp112
g10
(dp113
g12
F2.5
sg13
F2.2
ssg14
(dp114
g12
I250
sg13
I30
sssg16
S'; 2.200 < probe_sc_eta < 2.500; 30.000 < probe_sc_et < 250.000'
p115
sasg8
(lp116
g10
ag14
as.